target datalayout = "e-m:e-p270:32:32-p271:32:32-p272:64:64-i64:64-i128:128-f80:128-n8:16:32:64-S128"
target triple = "x86_64-pc-linux-gnu"

%struct.H5FS_t = type { %struct.H5C_cache_entry_t, i64, i64, i64, i64, i32, i16, i32, i32, i32, i64, i64, i64, i64, i32, i64, i64, ptr, i8, i32, i8, i8, i32, i64, i64, i64, ptr }
%struct.H5C_cache_entry_t = type { ptr, i64, i64, ptr, i8, ptr, i8, i8, i8, i8, i32, i8, i8, i8, i8, i8, i32, ptr, i32, i32, i32, i32, i32, i8, i8, ptr, ptr, ptr, ptr, ptr, ptr, i8, i32, i8, i64, ptr, i64, i64, i32, i8, i32, i32, i8, ptr, ptr, ptr }
%struct.H5FS_sinfo_t = type { %struct.H5C_cache_entry_t, ptr, i8, i32, i64, i64, i64, i64, i32, i32, i32, ptr, ptr }

@.str.2 = private unnamed_addr constant [103 x i8] c"generated/home/dtcxzyw/WorkSpace/Projects/compilers/llvm-opt-benchmark/bench/hdf5/hdf5/src/H5FScache.c\00", align 1
@H5E_FSPACE_g = external global i64, align 8
@H5E_NOSPACE_g = external global i64, align 8
@.str.12 = private unnamed_addr constant [47 x i8] c"file allocation failed for free space sections\00", align 1
@H5E_CANTMOVE_g = external global i64, align 8
@.str.16 = private unnamed_addr constant [28 x i8] c"unable to move section info\00", align 1
@__func__.H5FS__cache_sinfo_pre_serialize = private unnamed_addr constant [32 x i8] c"H5FS__cache_sinfo_pre_serialize\00", align 1
@H5E_CANTMARKDIRTY_g = external global i64, align 8
@.str.27 = private unnamed_addr constant [42 x i8] c"unable to mark free space header as dirty\00", align 1

; Function Attrs: nounwind uwtable
define internal i32 @H5FS__cache_sinfo_pre_serialize(ptr noundef %0, ptr noundef %1, i64 noundef %2, i64 noundef %3, ptr noundef %4, ptr noundef %5, ptr noundef %6) #0 {
  %8 = alloca ptr, align 8
  %9 = alloca ptr, align 8
  %10 = alloca i64, align 8
  %11 = alloca i64, align 8
  %12 = alloca ptr, align 8
  %13 = alloca ptr, align 8
  %14 = alloca ptr, align 8
  %15 = alloca ptr, align 8
  %16 = alloca ptr, align 8
  %17 = alloca i64, align 8
  %18 = alloca i32, align 4
  %19 = alloca i8, align 1
  store ptr %0, ptr %8, align 8
  store ptr %1, ptr %9, align 8
  store i64 %2, ptr %10, align 8
  store i64 %3, ptr %11, align 8
  store ptr %4, ptr %12, align 8
  store ptr %5, ptr %13, align 8
  store ptr %6, ptr %14, align 8
  %20 = load ptr, ptr %9, align 8
  store ptr %20, ptr %15, align 8
  store i32 0, ptr %18, align 4
  store i8 0, ptr %19, align 1
  %21 = load ptr, ptr %15, align 8
  %22 = getelementptr inbounds %struct.H5FS_sinfo_t, ptr %21, i32 0, i32 11
  %23 = load ptr, ptr %22, align 8
  store ptr %23, ptr %16, align 8
  %24 = load i64, ptr %10, align 8
  store i64 %24, ptr %17, align 8
  %25 = load ptr, ptr %8, align 8
  %26 = load ptr, ptr %16, align 8
  %27 = getelementptr inbounds %struct.H5FS_t, ptr %26, i32 0, i32 11
  %28 = load i64, ptr %27, align 8
  %29 = call zeroext i1 @H5F_is_tmp_addr(ptr noundef %25, i64 noundef %28)
  br i1 %29, label %30, label %107

30:                                               ; preds = %7
  %31 = load ptr, ptr %8, align 8
  %32 = load ptr, ptr %16, align 8
  %33 = getelementptr inbounds %struct.H5FS_t, ptr %32, i32 0, i32 12
  %34 = load i64, ptr %33, align 8
  %35 = call i64 @H5MF_alloc(ptr noundef %31, i32 noundef 5, i64 noundef %34)
  store i64 %35, ptr %17, align 8
  %36 = icmp eq i64 -1, %35
  br i1 %36, label %37, label %52

37:                                               ; preds = %30
  br label %38

38:                                               ; preds = %37
  br label %39

39:                                               ; preds = %38
  br label %40

40:                                               ; preds = %39
  %41 = load i64, ptr @H5E_FSPACE_g, align 8
  %42 = load i64, ptr @H5E_NOSPACE_g, align 8
  %43 = call i32 (ptr, ptr, i32, i64, i64, ptr, ...) @H5E_printf_stack(ptr noundef @.str.2, ptr noundef @__func__.H5FS__cache_sinfo_pre_serialize, i32 noundef 1146, i64 noundef %41, i64 noundef %42, ptr noundef @.str.12)
  br label %44

44:                                               ; preds = %40
  store i8 1, ptr %19, align 1
  %45 = load i8, ptr %19, align 1
  %46 = trunc i8 %45 to i1
  %47 = zext i1 %46 to i8
  store i8 %47, ptr %19, align 1
  br label %48

48:                                               ; preds = %44
  br label %49

49:                                               ; preds = %48
  store i32 -1, ptr %18, align 4
  br label %121

50:                                               ; No predecessors!
  br label %51

51:                                               ; preds = %50
  br label %52

52:                                               ; preds = %51, %30
  %53 = load ptr, ptr %16, align 8
  %54 = getelementptr inbounds %struct.H5FS_t, ptr %53, i32 0, i32 12
  %55 = load i64, ptr %54, align 8
  %56 = load ptr, ptr %16, align 8
  %57 = getelementptr inbounds %struct.H5FS_t, ptr %56, i32 0, i32 13
  store i64 %55, ptr %57, align 8
  %58 = load ptr, ptr %8, align 8
  %59 = load ptr, ptr %15, align 8
  %60 = getelementptr inbounds %struct.H5FS_sinfo_t, ptr %59, i32 0, i32 11
  %61 = load ptr, ptr %60, align 8
  %62 = getelementptr inbounds %struct.H5FS_t, ptr %61, i32 0, i32 11
  %63 = load i64, ptr %62, align 8
  %64 = load i64, ptr %17, align 8
  %65 = call i32 @H5AC_move_entry(ptr noundef %58, ptr noundef @H5AC_FSPACE_SINFO, i64 noundef %63, i64 noundef %64)
  %66 = icmp slt i32 %65, 0
  br i1 %66, label %67, label %82

67:                                               ; preds = %52
  br label %68

68:                                               ; preds = %67
  br label %69

69:                                               ; preds = %68
  br label %70

70:                                               ; preds = %69
  %71 = load i64, ptr @H5E_FSPACE_g, align 8
  %72 = load i64, ptr @H5E_CANTMOVE_g, align 8
  %73 = call i32 (ptr, ptr, i32, i64, i64, ptr, ...) @H5E_printf_stack(ptr noundef @.str.2, ptr noundef @__func__.H5FS__cache_sinfo_pre_serialize, i32 noundef 1155, i64 noundef %71, i64 noundef %72, ptr noundef @.str.16)
  br label %74

74:                                               ; preds = %70
  store i8 1, ptr %19, align 1
  %75 = load i8, ptr %19, align 1
  %76 = trunc i8 %75 to i1
  %77 = zext i1 %76 to i8
  store i8 %77, ptr %19, align 1
  br label %78

78:                                               ; preds = %74
  br label %79

79:                                               ; preds = %78
  store i32 -1, ptr %18, align 4
  br label %121

80:                                               ; No predecessors!
  br label %81

81:                                               ; preds = %80
  br label %82

82:                                               ; preds = %81, %52
  %83 = load i64, ptr %17, align 8
  %84 = load ptr, ptr %15, align 8
  %85 = getelementptr inbounds %struct.H5FS_sinfo_t, ptr %84, i32 0, i32 11
  %86 = load ptr, ptr %85, align 8
  %87 = getelementptr inbounds %struct.H5FS_t, ptr %86, i32 0, i32 11
  store i64 %83, ptr %87, align 8
  %88 = load ptr, ptr %16, align 8
  %89 = call i32 @H5AC_mark_entry_dirty(ptr noundef %88)
  %90 = icmp slt i32 %89, 0
  br i1 %90, label %91, label %106

91:                                               ; preds = %82
  br label %92

92:                                               ; preds = %91
  br label %93

93:                                               ; preds = %92
  br label %94

94:                                               ; preds = %93
  %95 = load i64, ptr @H5E_FSPACE_g, align 8
  %96 = load i64, ptr @H5E_CANTMARKDIRTY_g, align 8
  %97 = call i32 (ptr, ptr, i32, i64, i64, ptr, ...) @H5E_printf_stack(ptr noundef @.str.2, ptr noundef @__func__.H5FS__cache_sinfo_pre_serialize, i32 noundef 1162, i64 noundef %95, i64 noundef %96, ptr noundef @.str.27)
  br label %98

98:                                               ; preds = %94
  store i8 1, ptr %19, align 1
  %99 = load i8, ptr %19, align 1
  %100 = trunc i8 %99 to i1
  %101 = zext i1 %100 to i8
  store i8 %101, ptr %19, align 1
  br label %102

102:                                              ; preds = %98
  br label %103

103:                                              ; preds = %102
  store i32 -1, ptr %18, align 4
  br label %121

104:                                              ; No predecessors!
  br label %105

105:                                              ; preds = %104
  br label %106

106:                                              ; preds = %105, %82
  br label %107

107:                                              ; preds = %106, %7
  %108 = load i64, ptr %10, align 8
  %109 = icmp ne i64 %108, -1
  br i1 %109, label %110, label %114

110:                                              ; preds = %107
  %111 = load i64, ptr %10, align 8
  %112 = load i64, ptr %17, align 8
  %113 = icmp eq i64 %111, %112
  br i1 %113, label %118, label %114

114:                                              ; preds = %110, %107
  %115 = load i64, ptr %17, align 8
  %116 = load ptr, ptr %12, align 8
  store i64 %115, ptr %116, align 8
  %117 = load ptr, ptr %14, align 8
  store i32 2, ptr %117, align 4
  br label %120

118:                                              ; preds = %110
  %119 = load ptr, ptr %14, align 8
  store i32 0, ptr %119, align 4
  br label %120

120:                                              ; preds = %118, %114
  br label %121

121:                                              ; preds = %120, %103, %79, %49
  %122 = load i32, ptr %18, align 4
  ret i32 %122
}