; Function Attrs: nounwind uwtable
define internal range(i32 -1, 1) i32 @H5FS__cache_sinfo_pre_serialize(ptr noundef %0, ptr nocapture noundef readonly %1, i64 noundef %2, i64 %3, ptr nocapture noundef writeonly %4, ptr nocapture readnone %5, ptr nocapture noundef writeonly %6) #0 {
  %8 = getelementptr inbounds i8, ptr %1, i64 312
  %9 = load ptr, ptr %8, align 8
  %10 = getelementptr inbounds i8, ptr %9, i64 312
  %11 = load i64, ptr %10, align 8
  %12 = tail call zeroext i1 @H5F_is_tmp_addr(ptr noundef %0, i64 noundef %11) #7
  br i1 %12, label %13, label %43

13:                                               ; preds = %7
  %14 = getelementptr inbounds i8, ptr %9, i64 320
  %15 = load i64, ptr %14, align 8
  %16 = tail call i64 @H5MF_alloc(ptr noundef %0, i32 noundef 5, i64 noundef %15) #7
  %17 = icmp eq i64 %16, -1
  br i1 %17, label %18, label %22

18:                                               ; preds = %13
  %19 = load i64, ptr @H5E_FSPACE_g, align 8
  %20 = load i64, ptr @H5E_NOSPACE_g, align 8
  %21 = tail call i32 (ptr, ptr, i32, i64, i64, ptr, ...) @H5E_printf_stack(ptr noundef nonnull @.str.2, ptr noundef nonnull @__func__.H5FS__cache_sinfo_pre_serialize, i32 noundef 1146, i64 noundef %19, i64 noundef %20, ptr noundef nonnull @.str.12) #7
  br label %47

22:                                               ; preds = %13
  %23 = load i64, ptr %14, align 8
  %24 = getelementptr inbounds i8, ptr %9, i64 328
  store i64 %23, ptr %24, align 8
  %25 = load ptr, ptr %8, align 8
  %26 = getelementptr inbounds i8, ptr %25, i64 312
  %27 = load i64, ptr %26, align 8
  %28 = tail call i32 @H5AC_move_entry(ptr noundef %0, ptr noundef nonnull @H5AC_FSPACE_SINFO, i64 noundef %27, i64 noundef %16) #7
  %29 = icmp slt i32 %28, 0
  br i1 %29, label %30, label %34

30:                                               ; preds = %22
  %31 = load i64, ptr @H5E_FSPACE_g, align 8
  %32 = load i64, ptr @H5E_CANTMOVE_g, align 8
  %33 = tail call i32 (ptr, ptr, i32, i64, i64, ptr, ...) @H5E_printf_stack(ptr noundef nonnull @.str.2, ptr noundef nonnull @__func__.H5FS__cache_sinfo_pre_serialize, i32 noundef 1155, i64 noundef %31, i64 noundef %32, ptr noundef nonnull @.str.16) #7
  br label %47

34:                                               ; preds = %22
  %35 = load ptr, ptr %8, align 8
  %36 = getelementptr inbounds i8, ptr %35, i64 312
  store i64 %16, ptr %36, align 8
  %37 = tail call i32 @H5AC_mark_entry_dirty(ptr noundef nonnull %9) #7
  %38 = icmp slt i32 %37, 0
  br i1 %38, label %39, label %43

39:                                               ; preds = %34
  %40 = load i64, ptr @H5E_FSPACE_g, align 8
  %41 = load i64, ptr @H5E_CANTMARKDIRTY_g, align 8
  %42 = tail call i32 (ptr, ptr, i32, i64, i64, ptr, ...) @H5E_printf_stack(ptr noundef nonnull @.str.2, ptr noundef nonnull @__func__.H5FS__cache_sinfo_pre_serialize, i32 noundef 1162, i64 noundef %40, i64 noundef %41, ptr noundef nonnull @.str.27) #7
  br label %47

43:                                               ; preds = %34, %7
  %.025 = phi i64 [ %16, %34 ], [ %2, %7 ]
  %.not = icmp ne i64 %2, -1
  %44 = icmp eq i64 %.025, %2
  %or.cond = and i1 %.not, %44
  br i1 %or.cond, label %46, label %45

45:                                               ; preds = %43
  store i64 %.025, ptr %4, align 8
  store i32 2, ptr %6, align 4
  br label %47

46:                                               ; preds = %43
  store i32 0, ptr %6, align 4
  br label %47

47:                                               ; preds = %45, %46, %39, %30, %18
  %.0 = phi i32 [ -1, %18 ], [ -1, %30 ], [ -1, %39 ], [ 0, %46 ], [ 0, %45 ]
  ret i32 %.0
}